(idocument
KabikabooDocument
p0
(dp1
S'all'
p2
I01
sS'visits_session'
p3
I0
sS'visited_max'
p4
I10
sS'parent'
p5
I0
sS'title'
p6
S'New Document'
p7
sS'tabs'
p8
(lp9
I3
aI7
aI6
asS'text'
p10
S'Graciosa graciosa graciosa caridad del momento, que me traes los m\xc3\xa1s deliciosos lujos, ostentosos como una virgen desvirgada o como una monja con las pantaletas abajo. \nEl maravilloso placer de ver a las masas revolcarse los unos con los otros, jact\xc3\xa1ndose de su libertad mientras sus amos los jalan de la cadena.\nQue delicia ver a esos pobres diablos gritarse unos a otros que son unos perros, unas burdas mascotas, s\xc3\xb3lo porque pueden ver el collar de los otros pero no pueden ver el propio.\nNo me vanaglorio de mi libertad, s\xc3\xa9 que de mi cuello cuelga una placa con mi nombre y el n\xc3\xbamero de tel\xc3\xa9fono de mi jefe por si me pierdo. Pero eso s\xc3\xad, al menos yo ya me di cuenta que lo tengo. Es el primer paso.'
p11
sS'bookmark_max'
p12
I10
sS'children'
p13
(idocument
KabikabooNodeList
p14
(dp15
S'list'
p16
(lp17
(idocument
KabikabooNode
p18
(dp19
g2
I01
sg3
I2
sg5
g0
sg6
S'Poemas/Prosa/Versos libres'
p20
sg10
S''
p21
sg13
(idocument
KabikabooNodeList
p22
(dp23
g16
(lp24
sg5
g18
sbsS'bulleting'
p25
I0
sS'visits_all'
p26
I4
sS'id'
p27
I5
sS'view'
p28
I00
sba(idocument
KabikabooNode
p29
(dp30
g2
I01
sg3
I2
sg5
g0
sg6
S'Relatos'
p31
sg10
g21
sg13
(idocument
KabikabooNodeList
p32
(dp33
g16
(lp34
sg5
g29
sbsg25
I0
sg26
I7
sg27
I1
sg28
I00
sba(idocument
KabikabooNode
p35
(dp36
g2
I01
sg3
I7
sg5
g0
sg6
S'El tipo que se toca'
p37
sg10
S'Entonces est\xc3\xa1 un tipo, solo el tipo, solo solo, muy solo en su casa. El tipo, solo en su casa, se da cuenta que no tiene mucho qu\xc3\xa9 hacer, no tiene nada qu\xc3\xa9 hacer, ni nadie a qui\xc3\xa9n hablarle. El tipo lleva solo mucho tiempo, mucho mucho tiempo. \nLa mujer lo dej\xc3\xb3 porque el tipo no se cuida, el tipo sale a la calle con mucho dinero y con muchas cosas de valor y con muchas ganas de que lo roben para tener algo interesante que contar. Tambi\xc3\xa9n el tipo no se toma sus medicinas para el coraz\xc3\xb3n, ni quiere dejar de fumar, ni quiere dejar de tener aventuras con la hija del panadero, pero esas son razones de menos peso.\nAs\xc3\xad que tenemos a este tipo, que ahora le gusta re\xc3\xadrse solo, cuando antes disfrutaba re\xc3\xadrse con sus amigos o con su mujer. Antes sal\xc3\xada con su mujer a todos lados, a la plaza, al cine, a los clubes, a los restaurantes, pero no a la panader\xc3\xada, oh no, a ese lugar iba \xc3\xa9l solo, solo \xc3\xa9l. Ella pensaba que era porque no quer\xc3\xada despertarla temprano en la ma\xc3\xb1ana, pero viajes de una hora a la panader\xc3\xada eran una exageraci\xc3\xb3n, igual que era una exageraci\xc3\xb3n que una amiga fuera la que le contara a la mujer sobre la aventura de su marido. Pobre tipo, v\xc3\xadctima de exageraciones. C\xc3\xb3mo le gusta acordarse de los exagerados gritos de su mujer el d\xc3\xada que se enter\xc3\xb3.\nEl tipo no puede dejar de recordar a su mujer, c\xc3\xb3mo la quer\xc3\xada, c\xc3\xb3mo la extra\xc3\xb1a, c\xc3\xb3mo le gustaba tenerla cerca. Le gustaba mucho su mujer, la quer\xc3\xada mucho tambi\xc3\xa9n. La quer\xc3\xada tanto que cuando la mujer empez\xc3\xb3 a romper platos, a estrellar vasos contra la pared, a gritar groser\xc3\xadas, \xc3\xa9l le ten\xc3\xada celos a los platos, a los vasos y a los gritos porque todos hab\xc3\xadan tenido chance de estar cerca de ella antes de desaparecer en el aire.\nAl tipo no se le olvida la mujer, la ex mujer, siempre se acuerda de ella, se los aseguro. Ese d\xc3\xada, esa tarde, en la sala, a unos pasos de la ventana, m\xc3\xa1s que nunca la recuerda. Se est\xc3\xa1 tocando la cremayera mientras la recuerda, oh s\xc3\xad. Ahora se toca la ropa interior y ahora se toca el miembro.\nAl tipo le gusta acordarse de su mujer mientras se toca, eso es.'
p38
sg13
(idocument
KabikabooNodeList
p39
(dp40
g16
(lp41
(idocument
KabikabooNode
p42
(dp43
g2
I01
sg3
I6
sg5
g35
sg6
S'La tipa que se asoma'
p44
sg10
S'Entonces est\xc3\xa1 una mujer, una mujer sola, muy sola. Est\xc3\xa1 tan sola que si la ves en la calle rodeada de personas, creer\xc3\xa1s que se perdi\xc3\xb3 y est\xc3\xa1 preguntando direcciones, o est\xc3\xa1 pidiendo la hora, o cualquier cosa excepto que est\xc3\xa1 con el grupo. Est\xc3\xa1 tan sola que nadie cree que pueda estar cerca de otra persona sin espantarse de su soledad. La mujer se da cuenta que no tiene mucho qu\xc3\xa9 hacer, no tiene nada qu\xc3\xa9 hacer ni nadie de qui\xc3\xa9n hablar. Se dedica a salir a la calle, sola.\nPero esta mujer es mit\xc3\xb3mana, ciza\xc3\xb1era, entrometida. Quiz\xc3\xa1s por eso est\xc3\xa1 sola, nadie quiere caer en su lengua.\nUna vez vendi\xc3\xb3 a su mejor amiga por las risas de un grupo de personas que se olvidaron de ella bastante r\xc3\xa1pido, entonces se qued\xc3\xb3 sin amiga y sin personas, ahora solo tiene do\xc3\xb1as chismosas o comadronas interesadas en los m\xc3\xa1s recientes cotilleos del barrio que van y vienen sin conocerla realmente. Es solo la surtidora de cuentos locales.\nEntonces est\xc3\xa1 la mujer, est\xc3\xa1 caminando. Pasa frente a la casa del Guille Gutierrez, el tipo al que la mujer lo dej\xc3\xb3 por infiel. Ella fue la primera en enterarse, la mujer del Guille en persona le cont\xc3\xb3 todo.\nEl Guille tiene meses que no aparece o, por lo menos, que ella no lo ve. Ella, preocupada pero no por el Guille sino por no enterarse si \xc3\xa9l se mud\xc3\xb3 o se mat\xc3\xb3 dentro de su casa, decide que es una buena idea asomarse por la oscura ventana. Ese d\xc3\xada, esa tarde, en la sala, a unos pasos de la ventana, lo ve.\nA la mujer le gusta asomarse en ventanas ajenas para tener de qu\xc3\xa9 hablar, eso es.'
p45
sg13
(idocument
KabikabooNodeList
p46
(dp47
g16
(lp48
sg5
g42
sbsg25
I0
sg26
I24
sg27
I6
sg28
I00
sba(idocument
KabikabooNode
p49
(dp50
g2
I01
sg3
I4
sg5
g35
sg6
S'Se ven'
p51
sg10
g21
sg13
(idocument
KabikabooNodeList
p52
(dp53
g16
(lp54
sg5
g49
sbsg25
I0
sg26
I4
sg27
I7
sg28
I00
sbasg5
g35
sbsg25
I0
sg26
I29
sg27
I3
sg28
I00
sbasg5
g0
sbsS'tab_max'
p55
I7
sS'show_titles_in_export'
p56
I01
sg25
I0
sS'version'
p57
S'1.7'
p58
sg26
I5
sS'visited'
p59
(lp60
I6
aI7
aI1
aI3
aI5
aI0
asS'table'
p61
(dp62
I0
g0
sI1
g29
sI2
NsI3
g35
sI4
NsI5
g18
sI6
g42
sI7
g49
ssS'bookmarks'
p63
(lp64
I7
aI3
asS'show_titles_in_view'
p65
I01
sg27
I0
sS'unique_id'
p66
I7
sg28
I00
sb.